target datalayout = "e-m:e-p270:32:32-p271:32:32-p272:64:64-i64:64-i128:128-f80:128-n8:16:32:64-S128"
target triple = "x86_64-pc-linux-gnu"

%struct._value_string_ext = type { ptr, i32, i32, ptr, ptr }

@dns_types_vals_ext = internal global %struct._value_string_ext { ptr @_try_val_to_str_ext_init, i32 0, i32 93, ptr @dns_types_vals, ptr @.str.1025 }, align 8
@hf_dns_rr_type = internal global i32 0, align 4
@dns_types_description_vals_ext = internal global %struct._value_string_ext { ptr @_try_val_to_str_ext_init, i32 0, i32 93, ptr @dns_types_description_vals, ptr @.str.1211 }, align 8
@.str.1210 = private unnamed_addr constant [13 x i8] c"Unknown (%d)\00", align 1
@.str.1330 = private unnamed_addr constant [26 x i8] c"RR type in bit map: %s %s\00", align 1
@.str.1331 = private unnamed_addr constant [2 x i8] c" \00", align 1

; Function Attrs: null_pointer_is_valid sspstrong uwtable
define internal i32 @dissect_type_bitmap(ptr noundef %0, ptr noundef %1, i32 noundef %2, i32 noundef %3) #0 {
  %5 = alloca ptr, align 8
  %6 = alloca ptr, align 8
  %7 = alloca i32, align 4
  %8 = alloca i32, align 4
  %9 = alloca i32, align 4
  %10 = alloca i32, align 4
  %11 = alloca i32, align 4
  %12 = alloca i32, align 4
  %13 = alloca i32, align 4
  %14 = alloca i32, align 4
  %15 = alloca i8, align 1
  store ptr %0, ptr %5, align 8
  store ptr %1, ptr %6, align 8
  store i32 %2, ptr %7, align 4
  store i32 %3, ptr %8, align 4
  call void @llvm.lifetime.start.p0(i64 4, ptr %9) #11
  call void @llvm.lifetime.start.p0(i64 4, ptr %10) #11
  call void @llvm.lifetime.start.p0(i64 4, ptr %11) #11
  call void @llvm.lifetime.start.p0(i64 4, ptr %12) #11
  call void @llvm.lifetime.start.p0(i64 4, ptr %13) #11
  call void @llvm.lifetime.start.p0(i64 4, ptr %14) #11
  call void @llvm.lifetime.start.p0(i64 1, ptr %15) #11
  %16 = load i32, ptr %7, align 4
  store i32 %16, ptr %13, align 4
  br label %17

17:                                               ; preds = %79, %4
  %18 = load i32, ptr %8, align 4
  %19 = icmp ne i32 %18, 0
  br i1 %19, label %20, label %80

20:                                               ; preds = %17
  %21 = load ptr, ptr %6, align 8
  %22 = load i32, ptr %7, align 4
  %23 = call zeroext i8 @tvb_get_uint8(ptr noundef %21, i32 noundef %22)
  %24 = zext i8 %23 to i32
  store i32 %24, ptr %10, align 4
  %25 = load ptr, ptr %6, align 8
  %26 = load i32, ptr %7, align 4
  %27 = add i32 %26, 1
  %28 = call zeroext i8 @tvb_get_uint8(ptr noundef %25, i32 noundef %27)
  %29 = zext i8 %28 to i32
  store i32 %29, ptr %11, align 4
  %30 = load i32, ptr %7, align 4
  %31 = add i32 %30, 2
  store i32 %31, ptr %7, align 4
  %32 = load i32, ptr %8, align 4
  %33 = sub i32 %32, 2
  store i32 %33, ptr %8, align 4
  %34 = load i32, ptr %10, align 4
  %35 = mul i32 %34, 256
  store i32 %35, ptr %14, align 4
  br label %36

36:                                               ; preds = %76, %20
  %37 = load i32, ptr %11, align 4
  %38 = icmp ne i32 %37, 0
  br i1 %38, label %39, label %79

39:                                               ; preds = %36
  %40 = load ptr, ptr %6, align 8
  %41 = load i32, ptr %7, align 4
  %42 = call zeroext i8 @tvb_get_uint8(ptr noundef %40, i32 noundef %41)
  store i8 %42, ptr %15, align 1
  store i32 128, ptr %9, align 4
  store i32 0, ptr %12, align 4
  br label %43

43:                                               ; preds = %68, %39
  %44 = load i32, ptr %12, align 4
  %45 = icmp slt i32 %44, 8
  br i1 %45, label %46, label %71

46:                                               ; preds = %43
  %47 = load i8, ptr %15, align 1
  %48 = zext i8 %47 to i32
  %49 = load i32, ptr %9, align 4
  %50 = and i32 %48, %49
  %51 = icmp ne i32 %50, 0
  br i1 %51, label %52, label %63

52:                                               ; preds = %46
  %53 = load ptr, ptr %5, align 8
  %54 = load i32, ptr @hf_dns_rr_type, align 4
  %55 = load ptr, ptr %6, align 8
  %56 = load i32, ptr %7, align 4
  %57 = load i32, ptr %14, align 4
  %58 = load i32, ptr %14, align 4
  %59 = call ptr @val_to_str_ext_const(i32 noundef %58, ptr noundef @dns_types_vals_ext, ptr noundef @.str.1331)
  %60 = load i32, ptr %14, align 4
  %61 = call ptr @val_to_str_ext(i32 noundef %60, ptr noundef @dns_types_description_vals_ext, ptr noundef @.str.1210)
  %62 = call ptr (ptr, i32, ptr, i32, i32, i32, ptr, ...) @proto_tree_add_uint_format(ptr noundef %53, i32 noundef %54, ptr noundef %55, i32 noundef %56, i32 noundef 1, i32 noundef %57, ptr noundef @.str.1330, ptr noundef %59, ptr noundef %61)
  br label %63

63:                                               ; preds = %52, %46
  %64 = load i32, ptr %9, align 4
  %65 = ashr i32 %64, 1
  store i32 %65, ptr %9, align 4
  %66 = load i32, ptr %14, align 4
  %67 = add i32 %66, 1
  store i32 %67, ptr %14, align 4
  br label %68

68:                                               ; preds = %63
  %69 = load i32, ptr %12, align 4
  %70 = add i32 %69, 1
  store i32 %70, ptr %12, align 4
  br label %43, !llvm.loop !44

71:                                               ; preds = %43
  %72 = load i32, ptr %7, align 4
  %73 = add i32 %72, 1
  store i32 %73, ptr %7, align 4
  %74 = load i32, ptr %8, align 4
  %75 = sub i32 %74, 1
  store i32 %75, ptr %8, align 4
  br label %76

76:                                               ; preds = %71
  %77 = load i32, ptr %11, align 4
  %78 = add i32 %77, -1
  store i32 %78, ptr %11, align 4
  br label %36, !llvm.loop !45

79:                                               ; preds = %36
  br label %17, !llvm.loop !46

80:                                               ; preds = %17
  %81 = load i32, ptr %13, align 4
  %82 = load i32, ptr %7, align 4
  %83 = sub i32 %81, %82
  call void @llvm.lifetime.end.p0(i64 1, ptr %15) #11
  call void @llvm.lifetime.end.p0(i64 4, ptr %14) #11
  call void @llvm.lifetime.end.p0(i64 4, ptr %13) #11
  call void @llvm.lifetime.end.p0(i64 4, ptr %12) #11
  call void @llvm.lifetime.end.p0(i64 4, ptr %11) #11
  call void @llvm.lifetime.end.p0(i64 4, ptr %10) #11
  call void @llvm.lifetime.end.p0(i64 4, ptr %9) #11
  ret i32 %83
}