; Function Attrs: null_pointer_is_valid sspstrong uwtable
define internal fastcc void @dissect_type_bitmap(ptr noundef %0, ptr noundef %1, i32 noundef %2, i32 noundef %3) unnamed_addr #0 {
  %.not46 = icmp eq i32 %3, 0
  br i1 %.not46, label %._crit_edge, label %.lr.ph49

.loopexit.loopexit:                               ; preds = %27
  %5 = sub i32 %11, %9
  br label %.loopexit

.loopexit:                                        ; preds = %.loopexit.loopexit, %.lr.ph49
  %.131.lcssa = phi i32 [ %11, %.lr.ph49 ], [ %5, %.loopexit.loopexit ]
  %.1.lcssa = phi i32 [ %10, %.lr.ph49 ], [ %28, %.loopexit.loopexit ]
  %.not = icmp eq i32 %.131.lcssa, 0
  br i1 %.not, label %._crit_edge, label %.lr.ph49, !llvm.loop !43

.lr.ph49:                                         ; preds = %4, %.loopexit
  %.048 = phi i32 [ %.1.lcssa, %.loopexit ], [ %2, %4 ]
  %.03047 = phi i32 [ %.131.lcssa, %.loopexit ], [ %3, %4 ]
  %6 = tail call zeroext i8 @tvb_get_uint8(ptr noundef %1, i32 noundef %.048)
  %7 = add i32 %.048, 1
  %8 = tail call zeroext i8 @tvb_get_uint8(ptr noundef %1, i32 noundef %7)
  %9 = zext i8 %8 to i32
  %10 = add i32 %.048, 2
  %11 = add i32 %.03047, -2
  %.not3540 = icmp eq i8 %8, 0
  br i1 %.not3540, label %.loopexit, label %.lr.ph.preheader

.lr.ph.preheader:                                 ; preds = %.lr.ph49
  %12 = zext i8 %6 to i32
  %13 = shl nuw nsw i32 %12, 8
  br label %.lr.ph

.lr.ph:                                           ; preds = %.lr.ph.preheader, %27
  %.144 = phi i32 [ %28, %27 ], [ %10, %.lr.ph.preheader ]
  %.02843 = phi i32 [ %25, %27 ], [ %13, %.lr.ph.preheader ]
  %.03341 = phi i32 [ %29, %27 ], [ %9, %.lr.ph.preheader ]
  %14 = tail call zeroext i8 @tvb_get_uint8(ptr noundef %1, i32 noundef %.144)
  %15 = zext i8 %14 to i32
  br label %16

16:                                               ; preds = %.lr.ph, %23
  %.12939 = phi i32 [ %.02843, %.lr.ph ], [ %25, %23 ]
  %.03238 = phi i32 [ 0, %.lr.ph ], [ %26, %23 ]
  %.03437 = phi i32 [ 128, %.lr.ph ], [ %24, %23 ]
  %17 = and i32 %.03437, %15
  %.not36 = icmp eq i32 %17, 0
  br i1 %.not36, label %23, label %18

18:                                               ; preds = %16
  %19 = load i32, ptr @hf_dns_rr_type, align 4
  %20 = tail call ptr @val_to_str_ext_const(i32 noundef %.12939, ptr noundef nonnull @dns_types_vals_ext, ptr noundef nonnull @.str.1331)
  %21 = tail call ptr @val_to_str_ext(i32 noundef %.12939, ptr noundef nonnull @dns_types_description_vals_ext, ptr noundef nonnull @.str.1210)
  %22 = tail call ptr (ptr, i32, ptr, i32, i32, i32, ptr, ...) @proto_tree_add_uint_format(ptr noundef %0, i32 noundef %19, ptr noundef %1, i32 noundef %.144, i32 noundef 1, i32 noundef %.12939, ptr noundef nonnull @.str.1330, ptr noundef %20, ptr noundef %21)
  br label %23

23:                                               ; preds = %18, %16
  %24 = lshr i32 %.03437, 1
  %25 = add i32 %.12939, 1
  %26 = add nuw nsw i32 %.03238, 1
  %exitcond.not = icmp eq i32 %26, 8
  br i1 %exitcond.not, label %27, label %16, !llvm.loop !44

27:                                               ; preds = %23
  %28 = add i32 %.144, 1
  %29 = add nsw i32 %.03341, -1
  %.not35 = icmp eq i32 %29, 0
  br i1 %.not35, label %.loopexit.loopexit, label %.lr.ph, !llvm.loop !45

._crit_edge:                                      ; preds = %.loopexit, %4
  ret void
}